target datalayout = "e-m:e-p270:32:32-p271:32:32-p272:64:64-i64:64-i128:128-f80:128-n8:16:32:64-S128"
target triple = "x86_64-pc-linux-gnu"

@.str = private unnamed_addr constant [32 x i8] c"../openssl/crypto/cmp/cmp_vfy.c\00", align 1
@.str.4 = private unnamed_addr constant [5 x i8] c"INFO\00", align 1
@.str.7 = private unnamed_addr constant [5 x i8] c"WARN\00", align 1
@__func__.check_name = private unnamed_addr constant [11 x i8] c"check_name\00", align 1
@.str.58 = private unnamed_addr constant [11 x i8] c"missing %s\00", align 1
@.str.59 = private unnamed_addr constant [19 x i8] c" %s matches %s: %s\00", align 1
@.str.60 = private unnamed_addr constant [24 x i8] c" actual name in %s = %s\00", align 1
@.str.61 = private unnamed_addr constant [24 x i8] c" does not match %s = %s\00", align 1

; Function Attrs: nounwind uwtable
define internal i32 @check_name(ptr noundef %0, i32 noundef %1, ptr noundef %2, ptr noundef %3, ptr noundef %4, ptr noundef %5) #0 {
  %7 = alloca i32, align 4
  %8 = alloca ptr, align 8
  %9 = alloca i32, align 4
  %10 = alloca ptr, align 8
  %11 = alloca ptr, align 8
  %12 = alloca ptr, align 8
  %13 = alloca ptr, align 8
  %14 = alloca ptr, align 8
  %15 = alloca i32, align 4
  store ptr %0, ptr %8, align 8, !tbaa !3
  store i32 %1, ptr %9, align 4, !tbaa !12
  store ptr %2, ptr %10, align 8, !tbaa !64
  store ptr %3, ptr %11, align 8, !tbaa !79
  store ptr %4, ptr %12, align 8, !tbaa !64
  store ptr %5, ptr %13, align 8, !tbaa !79
  call void @llvm.lifetime.start.p0(i64 8, ptr %14) #5
  %16 = load ptr, ptr %13, align 8, !tbaa !79
  %17 = icmp eq ptr %16, null
  br i1 %17, label %18, label %19

18:                                               ; preds = %6
  store i32 1, ptr %7, align 4
  store i32 1, ptr %15, align 4
  br label %67

19:                                               ; preds = %6
  %20 = load ptr, ptr %11, align 8, !tbaa !79
  %21 = icmp eq ptr %20, null
  br i1 %21, label %22, label %26

22:                                               ; preds = %19
  %23 = load ptr, ptr %8, align 8, !tbaa !3
  %24 = load ptr, ptr %10, align 8, !tbaa !64
  %25 = call i32 (i32, ptr, ptr, ptr, i32, ptr, ptr, ...) @ossl_cmp_print_log(i32 noundef 4, ptr noundef %23, ptr noundef @__func__.check_name, ptr noundef @.str, i32 noundef 172, ptr noundef @.str.7, ptr noundef @.str.58, ptr noundef %24)
  store i32 0, ptr %7, align 4
  store i32 1, ptr %15, align 4
  br label %67

26:                                               ; preds = %19
  %27 = load ptr, ptr %11, align 8, !tbaa !79
  %28 = call ptr @X509_NAME_oneline(ptr noundef %27, ptr noundef null, i32 noundef 0)
  store ptr %28, ptr %14, align 8, !tbaa !64
  %29 = load ptr, ptr %11, align 8, !tbaa !79
  %30 = load ptr, ptr %13, align 8, !tbaa !79
  %31 = call i32 @X509_NAME_cmp(ptr noundef %29, ptr noundef %30)
  %32 = icmp eq i32 %31, 0
  br i1 %32, label %33, label %47

33:                                               ; preds = %26
  %34 = load i32, ptr %9, align 4, !tbaa !12
  %35 = icmp ne i32 %34, 0
  br i1 %35, label %36, label %45

36:                                               ; preds = %33
  %37 = load ptr, ptr %14, align 8, !tbaa !64
  %38 = icmp ne ptr %37, null
  br i1 %38, label %39, label %45

39:                                               ; preds = %36
  %40 = load ptr, ptr %8, align 8, !tbaa !3
  %41 = load ptr, ptr %10, align 8, !tbaa !64
  %42 = load ptr, ptr %12, align 8, !tbaa !64
  %43 = load ptr, ptr %14, align 8, !tbaa !64
  %44 = call i32 (i32, ptr, ptr, ptr, i32, ptr, ptr, ...) @ossl_cmp_print_log(i32 noundef 6, ptr noundef %40, ptr noundef @__func__.check_name, ptr noundef @.str, i32 noundef 179, ptr noundef @.str.4, ptr noundef @.str.59, ptr noundef %41, ptr noundef %42, ptr noundef %43)
  br label %45

45:                                               ; preds = %39, %36, %33
  %46 = load ptr, ptr %14, align 8, !tbaa !64
  call void @CRYPTO_free(ptr noundef %46, ptr noundef @.str, i32 noundef 180)
  store i32 1, ptr %7, align 4
  store i32 1, ptr %15, align 4
  br label %67

47:                                               ; preds = %26
  %48 = load ptr, ptr %14, align 8, !tbaa !64
  %49 = icmp ne ptr %48, null
  br i1 %49, label %50, label %55

50:                                               ; preds = %47
  %51 = load ptr, ptr %8, align 8, !tbaa !3
  %52 = load ptr, ptr %10, align 8, !tbaa !64
  %53 = load ptr, ptr %14, align 8, !tbaa !64
  %54 = call i32 (i32, ptr, ptr, ptr, i32, ptr, ptr, ...) @ossl_cmp_print_log(i32 noundef 6, ptr noundef %51, ptr noundef @__func__.check_name, ptr noundef @.str, i32 noundef 185, ptr noundef @.str.4, ptr noundef @.str.60, ptr noundef %52, ptr noundef %53)
  br label %55

55:                                               ; preds = %50, %47
  %56 = load ptr, ptr %14, align 8, !tbaa !64
  call void @CRYPTO_free(ptr noundef %56, ptr noundef @.str, i32 noundef 186)
  %57 = load ptr, ptr %13, align 8, !tbaa !79
  %58 = call ptr @X509_NAME_oneline(ptr noundef %57, ptr noundef null, i32 noundef 0)
  store ptr %58, ptr %14, align 8, !tbaa !64
  %59 = icmp ne ptr %58, null
  br i1 %59, label %60, label %65

60:                                               ; preds = %55
  %61 = load ptr, ptr %8, align 8, !tbaa !3
  %62 = load ptr, ptr %12, align 8, !tbaa !64
  %63 = load ptr, ptr %14, align 8, !tbaa !64
  %64 = call i32 (i32, ptr, ptr, ptr, i32, ptr, ptr, ...) @ossl_cmp_print_log(i32 noundef 6, ptr noundef %61, ptr noundef @__func__.check_name, ptr noundef @.str, i32 noundef 188, ptr noundef @.str.4, ptr noundef @.str.61, ptr noundef %62, ptr noundef %63)
  br label %65

65:                                               ; preds = %60, %55
  %66 = load ptr, ptr %14, align 8, !tbaa !64
  call void @CRYPTO_free(ptr noundef %66, ptr noundef @.str, i32 noundef 189)
  store i32 0, ptr %7, align 4
  store i32 1, ptr %15, align 4
  br label %67

67:                                               ; preds = %65, %45, %22, %18
  call void @llvm.lifetime.end.p0(i64 8, ptr %14) #5
  %68 = load i32, ptr %7, align 4
  ret i32 %68
}