; Function Attrs: nounwind uwtable
define internal fastcc range(i32 0, 2) i32 @check_name(ptr noundef %0, i32 noundef range(i32 0, 2) %1, ptr noundef %2, ptr noundef %3, ptr noundef %4, ptr noundef %5) unnamed_addr #0 {
  %7 = icmp eq ptr %5, null
  br i1 %7, label %30, label %8

8:                                                ; preds = %6
  %9 = icmp eq ptr %3, null
  br i1 %9, label %10, label %12

10:                                               ; preds = %8
  %11 = tail call i32 (i32, ptr, ptr, ptr, i32, ptr, ptr, ...) @ossl_cmp_print_log(i32 noundef 4, ptr noundef %0, ptr noundef nonnull @__func__.check_name, ptr noundef nonnull @.str, i32 noundef 172, ptr noundef nonnull @.str.7, ptr noundef nonnull @.str.58, ptr noundef %2) #3
  br label %30

12:                                               ; preds = %8
  %13 = tail call ptr @X509_NAME_oneline(ptr noundef nonnull %3, ptr noundef null, i32 noundef 0) #3
  %14 = tail call i32 @X509_NAME_cmp(ptr noundef nonnull %3, ptr noundef nonnull %5) #3
  %15 = icmp eq i32 %14, 0
  br i1 %15, label %16, label %22

16:                                               ; preds = %12
  %17 = icmp ne i32 %1, 0
  %18 = icmp ne ptr %13, null
  %or.cond = select i1 %17, i1 %18, i1 false
  br i1 %or.cond, label %19, label %21

19:                                               ; preds = %16
  %20 = tail call i32 (i32, ptr, ptr, ptr, i32, ptr, ptr, ...) @ossl_cmp_print_log(i32 noundef 6, ptr noundef %0, ptr noundef nonnull @__func__.check_name, ptr noundef nonnull @.str, i32 noundef 179, ptr noundef nonnull @.str.4, ptr noundef nonnull @.str.59, ptr noundef %2, ptr noundef %4, ptr noundef nonnull %13) #3
  br label %21

21:                                               ; preds = %19, %16
  tail call void @CRYPTO_free(ptr noundef %13, ptr noundef nonnull @.str, i32 noundef 180) #3
  br label %30

22:                                               ; preds = %12
  %.not = icmp eq ptr %13, null
  br i1 %.not, label %25, label %23

23:                                               ; preds = %22
  %24 = tail call i32 (i32, ptr, ptr, ptr, i32, ptr, ptr, ...) @ossl_cmp_print_log(i32 noundef 6, ptr noundef %0, ptr noundef nonnull @__func__.check_name, ptr noundef nonnull @.str, i32 noundef 185, ptr noundef nonnull @.str.4, ptr noundef nonnull @.str.60, ptr noundef %2, ptr noundef nonnull %13) #3
  br label %25

25:                                               ; preds = %23, %22
  tail call void @CRYPTO_free(ptr noundef %13, ptr noundef nonnull @.str, i32 noundef 186) #3
  %26 = tail call ptr @X509_NAME_oneline(ptr noundef nonnull %5, ptr noundef null, i32 noundef 0) #3
  %.not29 = icmp eq ptr %26, null
  br i1 %.not29, label %29, label %27

27:                                               ; preds = %25
  %28 = tail call i32 (i32, ptr, ptr, ptr, i32, ptr, ptr, ...) @ossl_cmp_print_log(i32 noundef 6, ptr noundef %0, ptr noundef nonnull @__func__.check_name, ptr noundef nonnull @.str, i32 noundef 188, ptr noundef nonnull @.str.4, ptr noundef nonnull @.str.61, ptr noundef %4, ptr noundef nonnull %26) #3
  br label %29

29:                                               ; preds = %27, %25
  tail call void @CRYPTO_free(ptr noundef %26, ptr noundef nonnull @.str, i32 noundef 189) #3
  br label %30

30:                                               ; preds = %6, %29, %21, %10
  %.0 = phi i32 [ 0, %10 ], [ 1, %21 ], [ 0, %29 ], [ 1, %6 ]
  ret i32 %.0
}